target datalayout = "e-m:e-p270:32:32-p271:32:32-p272:64:64-i64:64-i128:128-f80:128-n8:16:32:64-S128"
target triple = "x86_64-pc-linux-gnu"

%struct.gz_state = type { %struct.gzFile_s, i32, i32, ptr, i32, i32, ptr, ptr, i32, i32, i64, i32, i32, i32, i32, i64, i32, i32, ptr, %struct.z_stream_s }
%struct.gzFile_s = type { i32, ptr, i64 }
%struct.z_stream_s = type { ptr, i32, i64, ptr, i32, i64, ptr, ptr, ptr, ptr, ptr, i32, i64, i64, i32 }

@.str.1 = private unnamed_addr constant [14 x i8] c"out of memory\00", align 1
@.str.2 = private unnamed_addr constant [6 x i8] c"1.2.8\00", align 1

; Function Attrs: nounwind uwtable
define internal i32 @gz_init(ptr noundef %0) #0 {
  %2 = alloca i32, align 4
  %3 = alloca ptr, align 8
  %4 = alloca i32, align 4
  %5 = alloca ptr, align 8
  %6 = alloca i32, align 4
  store ptr %0, ptr %3, align 8, !tbaa !8
  call void @llvm.lifetime.start.p0(i64 4, ptr %4) #10
  call void @llvm.lifetime.start.p0(i64 8, ptr %5) #10
  %7 = load ptr, ptr %3, align 8, !tbaa !8
  %8 = getelementptr inbounds nuw %struct.gz_state, ptr %7, i32 0, i32 19
  store ptr %8, ptr %5, align 8, !tbaa !11
  %9 = load ptr, ptr %3, align 8, !tbaa !8
  %10 = getelementptr inbounds nuw %struct.gz_state, ptr %9, i32 0, i32 5
  %11 = load i32, ptr %10, align 4, !tbaa !30
  %12 = zext i32 %11 to i64
  %13 = call noalias ptr @malloc(i64 noundef %12) #11
  %14 = load ptr, ptr %3, align 8, !tbaa !8
  %15 = getelementptr inbounds nuw %struct.gz_state, ptr %14, i32 0, i32 6
  store ptr %13, ptr %15, align 8, !tbaa !25
  %16 = load ptr, ptr %3, align 8, !tbaa !8
  %17 = getelementptr inbounds nuw %struct.gz_state, ptr %16, i32 0, i32 6
  %18 = load ptr, ptr %17, align 8, !tbaa !25
  %19 = icmp eq ptr %18, null
  br i1 %19, label %20, label %22

20:                                               ; preds = %1
  %21 = load ptr, ptr %3, align 8, !tbaa !8
  call void @MOZ_Z_gz_error(ptr noundef %21, i32 noundef -4, ptr noundef @.str.1)
  store i32 -1, ptr %2, align 4
  store i32 1, ptr %6, align 4
  br label %98

22:                                               ; preds = %1
  %23 = load ptr, ptr %3, align 8, !tbaa !8
  %24 = getelementptr inbounds nuw %struct.gz_state, ptr %23, i32 0, i32 8
  %25 = load i32, ptr %24, align 8, !tbaa !31
  %26 = icmp ne i32 %25, 0
  br i1 %26, label %70, label %27

27:                                               ; preds = %22
  %28 = load ptr, ptr %3, align 8, !tbaa !8
  %29 = getelementptr inbounds nuw %struct.gz_state, ptr %28, i32 0, i32 5
  %30 = load i32, ptr %29, align 4, !tbaa !30
  %31 = zext i32 %30 to i64
  %32 = call noalias ptr @malloc(i64 noundef %31) #11
  %33 = load ptr, ptr %3, align 8, !tbaa !8
  %34 = getelementptr inbounds nuw %struct.gz_state, ptr %33, i32 0, i32 7
  store ptr %32, ptr %34, align 8, !tbaa !32
  %35 = load ptr, ptr %3, align 8, !tbaa !8
  %36 = getelementptr inbounds nuw %struct.gz_state, ptr %35, i32 0, i32 7
  %37 = load ptr, ptr %36, align 8, !tbaa !32
  %38 = icmp eq ptr %37, null
  br i1 %38, label %39, label %44

39:                                               ; preds = %27
  %40 = load ptr, ptr %3, align 8, !tbaa !8
  %41 = getelementptr inbounds nuw %struct.gz_state, ptr %40, i32 0, i32 6
  %42 = load ptr, ptr %41, align 8, !tbaa !25
  call void @free(ptr noundef %42) #10
  %43 = load ptr, ptr %3, align 8, !tbaa !8
  call void @MOZ_Z_gz_error(ptr noundef %43, i32 noundef -4, ptr noundef @.str.1)
  store i32 -1, ptr %2, align 4
  store i32 1, ptr %6, align 4
  br label %98

44:                                               ; preds = %27
  %45 = load ptr, ptr %5, align 8, !tbaa !11
  %46 = getelementptr inbounds nuw %struct.z_stream_s, ptr %45, i32 0, i32 8
  store ptr null, ptr %46, align 8, !tbaa !33
  %47 = load ptr, ptr %5, align 8, !tbaa !11
  %48 = getelementptr inbounds nuw %struct.z_stream_s, ptr %47, i32 0, i32 9
  store ptr null, ptr %48, align 8, !tbaa !34
  %49 = load ptr, ptr %5, align 8, !tbaa !11
  %50 = getelementptr inbounds nuw %struct.z_stream_s, ptr %49, i32 0, i32 10
  store ptr null, ptr %50, align 8, !tbaa !35
  %51 = load ptr, ptr %5, align 8, !tbaa !11
  %52 = load ptr, ptr %3, align 8, !tbaa !8
  %53 = getelementptr inbounds nuw %struct.gz_state, ptr %52, i32 0, i32 13
  %54 = load i32, ptr %53, align 8, !tbaa !36
  %55 = load ptr, ptr %3, align 8, !tbaa !8
  %56 = getelementptr inbounds nuw %struct.gz_state, ptr %55, i32 0, i32 14
  %57 = load i32, ptr %56, align 4, !tbaa !37
  %58 = call i32 @MOZ_Z_deflateInit2_(ptr noundef %51, i32 noundef %54, i32 noundef 8, i32 noundef 31, i32 noundef 8, i32 noundef %57, ptr noundef @.str.2, i32 noundef 120)
  store i32 %58, ptr %4, align 4, !tbaa !9
  %59 = load i32, ptr %4, align 4, !tbaa !9
  %60 = icmp ne i32 %59, 0
  br i1 %60, label %61, label %69

61:                                               ; preds = %44
  %62 = load ptr, ptr %3, align 8, !tbaa !8
  %63 = getelementptr inbounds nuw %struct.gz_state, ptr %62, i32 0, i32 7
  %64 = load ptr, ptr %63, align 8, !tbaa !32
  call void @free(ptr noundef %64) #10
  %65 = load ptr, ptr %3, align 8, !tbaa !8
  %66 = getelementptr inbounds nuw %struct.gz_state, ptr %65, i32 0, i32 6
  %67 = load ptr, ptr %66, align 8, !tbaa !25
  call void @free(ptr noundef %67) #10
  %68 = load ptr, ptr %3, align 8, !tbaa !8
  call void @MOZ_Z_gz_error(ptr noundef %68, i32 noundef -4, ptr noundef @.str.1)
  store i32 -1, ptr %2, align 4
  store i32 1, ptr %6, align 4
  br label %98

69:                                               ; preds = %44
  br label %70

70:                                               ; preds = %69, %22
  %71 = load ptr, ptr %3, align 8, !tbaa !8
  %72 = getelementptr inbounds nuw %struct.gz_state, ptr %71, i32 0, i32 5
  %73 = load i32, ptr %72, align 4, !tbaa !30
  %74 = load ptr, ptr %3, align 8, !tbaa !8
  %75 = getelementptr inbounds nuw %struct.gz_state, ptr %74, i32 0, i32 4
  store i32 %73, ptr %75, align 8, !tbaa !21
  %76 = load ptr, ptr %3, align 8, !tbaa !8
  %77 = getelementptr inbounds nuw %struct.gz_state, ptr %76, i32 0, i32 8
  %78 = load i32, ptr %77, align 8, !tbaa !31
  %79 = icmp ne i32 %78, 0
  br i1 %79, label %97, label %80

80:                                               ; preds = %70
  %81 = load ptr, ptr %3, align 8, !tbaa !8
  %82 = getelementptr inbounds nuw %struct.gz_state, ptr %81, i32 0, i32 4
  %83 = load i32, ptr %82, align 8, !tbaa !21
  %84 = load ptr, ptr %5, align 8, !tbaa !11
  %85 = getelementptr inbounds nuw %struct.z_stream_s, ptr %84, i32 0, i32 4
  store i32 %83, ptr %85, align 8, !tbaa !38
  %86 = load ptr, ptr %3, align 8, !tbaa !8
  %87 = getelementptr inbounds nuw %struct.gz_state, ptr %86, i32 0, i32 7
  %88 = load ptr, ptr %87, align 8, !tbaa !32
  %89 = load ptr, ptr %5, align 8, !tbaa !11
  %90 = getelementptr inbounds nuw %struct.z_stream_s, ptr %89, i32 0, i32 3
  store ptr %88, ptr %90, align 8, !tbaa !39
  %91 = load ptr, ptr %5, align 8, !tbaa !11
  %92 = getelementptr inbounds nuw %struct.z_stream_s, ptr %91, i32 0, i32 3
  %93 = load ptr, ptr %92, align 8, !tbaa !39
  %94 = load ptr, ptr %3, align 8, !tbaa !8
  %95 = getelementptr inbounds nuw %struct.gz_state, ptr %94, i32 0, i32 0
  %96 = getelementptr inbounds nuw %struct.gzFile_s, ptr %95, i32 0, i32 1
  store ptr %93, ptr %96, align 8, !tbaa !40
  br label %97

97:                                               ; preds = %80, %70
  store i32 0, ptr %2, align 4
  store i32 1, ptr %6, align 4
  br label %98

98:                                               ; preds = %97, %61, %39, %20
  call void @llvm.lifetime.end.p0(i64 8, ptr %5) #10
  call void @llvm.lifetime.end.p0(i64 4, ptr %4) #10
  %99 = load i32, ptr %2, align 4
  ret i32 %99
}