; Function Attrs: nounwind uwtable
define internal fastcc range(i32 -1, 1) i32 @gz_init(ptr noundef nonnull initializes((48, 56)) %0) unnamed_addr #0 {
  %2 = getelementptr inbounds nuw i8, ptr %0, i64 120
  %3 = getelementptr inbounds nuw i8, ptr %0, i64 44
  %4 = load i32, ptr %3, align 4, !tbaa !25
  %5 = zext i32 %4 to i64
  %6 = tail call noalias ptr @malloc(i64 noundef %5) #15
  %7 = getelementptr inbounds nuw i8, ptr %0, i64 48
  store ptr %6, ptr %7, align 8, !tbaa !21
  %8 = icmp eq ptr %6, null
  br i1 %8, label %9, label %10

9:                                                ; preds = %1
  tail call void @MOZ_Z_gz_error(ptr noundef nonnull %0, i32 noundef -4, ptr noundef nonnull @.str.1) #14
  br label %37

10:                                               ; preds = %1
  %11 = getelementptr inbounds nuw i8, ptr %0, i64 64
  %12 = load i32, ptr %11, align 8, !tbaa !26
  %.not = icmp eq i32 %12, 0
  br i1 %.not, label %14, label %.thread

.thread:                                          ; preds = %10
  %13 = getelementptr inbounds nuw i8, ptr %0, i64 40
  store i32 %4, ptr %13, align 8, !tbaa !15
  br label %37

14:                                               ; preds = %10
  %15 = tail call noalias ptr @malloc(i64 noundef %5) #15
  %16 = getelementptr inbounds nuw i8, ptr %0, i64 56
  store ptr %15, ptr %16, align 8, !tbaa !27
  %17 = icmp eq ptr %15, null
  br i1 %17, label %18, label %19

18:                                               ; preds = %14
  tail call void @free(ptr noundef nonnull %6) #14
  tail call void @MOZ_Z_gz_error(ptr noundef nonnull %0, i32 noundef -4, ptr noundef nonnull @.str.1) #14
  br label %37

19:                                               ; preds = %14
  %20 = getelementptr inbounds nuw i8, ptr %0, i64 184
  %21 = getelementptr inbounds nuw i8, ptr %0, i64 88
  tail call void @llvm.memset.p0.i64(ptr noundef nonnull align 8 dereferenceable(24) %20, i8 0, i64 24, i1 false)
  %22 = load i32, ptr %21, align 8, !tbaa !28
  %23 = getelementptr inbounds nuw i8, ptr %0, i64 92
  %24 = load i32, ptr %23, align 4, !tbaa !29
  %25 = tail call i32 @MOZ_Z_deflateInit2_(ptr noundef nonnull %2, i32 noundef %22, i32 noundef 8, i32 noundef 31, i32 noundef 8, i32 noundef %24, ptr noundef nonnull @.str.2, i32 noundef 120) #14
  %.not30 = icmp eq i32 %25, 0
  br i1 %.not30, label %29, label %26

26:                                               ; preds = %19
  %27 = load ptr, ptr %16, align 8, !tbaa !27
  tail call void @free(ptr noundef %27) #14
  %28 = load ptr, ptr %7, align 8, !tbaa !21
  tail call void @free(ptr noundef %28) #14
  tail call void @MOZ_Z_gz_error(ptr noundef nonnull %0, i32 noundef -4, ptr noundef nonnull @.str.1) #14
  br label %37

29:                                               ; preds = %19
  %.pr = load i32, ptr %11, align 8, !tbaa !26
  %30 = load i32, ptr %3, align 4, !tbaa !25
  %31 = getelementptr inbounds nuw i8, ptr %0, i64 40
  store i32 %30, ptr %31, align 8, !tbaa !15
  %.not31 = icmp eq i32 %.pr, 0
  br i1 %.not31, label %32, label %37

32:                                               ; preds = %29
  %33 = getelementptr inbounds nuw i8, ptr %0, i64 152
  store i32 %30, ptr %33, align 8, !tbaa !30
  %34 = load ptr, ptr %16, align 8, !tbaa !27
  %35 = getelementptr inbounds nuw i8, ptr %0, i64 144
  store ptr %34, ptr %35, align 8, !tbaa !31
  %36 = getelementptr inbounds nuw i8, ptr %0, i64 8
  store ptr %34, ptr %36, align 8, !tbaa !32
  br label %37

37:                                               ; preds = %.thread, %29, %32, %26, %18, %9
  %.0 = phi i32 [ -1, %9 ], [ -1, %18 ], [ -1, %26 ], [ 0, %32 ], [ 0, %29 ], [ 0, %.thread ]
  ret i32 %.0
}